target datalayout = "e-m:e-p270:32:32-p271:32:32-p272:64:64-i64:64-i128:128-f80:128-n8:16:32:64-S128"
target triple = "x86_64-pc-linux-gnu"

%struct.AVRational = type { i32, i32 }
%struct.AVChapter = type { i64, %struct.AVRational, i64, i64, ptr }

; Function Attrs: nounwind uwtable
define internal i32 @chapter_start_cmp(ptr noundef %0, ptr noundef %1) #0 {
  %3 = alloca i32, align 4
  %4 = alloca ptr, align 8
  %5 = alloca ptr, align 8
  %6 = alloca ptr, align 8
  %7 = alloca ptr, align 8
  %8 = alloca i32, align 4
  %9 = alloca i32, align 4
  store ptr %0, ptr %4, align 8, !tbaa !272
  store ptr %1, ptr %5, align 8, !tbaa !272
  call void @llvm.lifetime.start.p0(i64 8, ptr %6) #13
  %10 = load ptr, ptr %4, align 8, !tbaa !272
  %11 = load ptr, ptr %10, align 8, !tbaa !312
  store ptr %11, ptr %6, align 8, !tbaa !312
  call void @llvm.lifetime.start.p0(i64 8, ptr %7) #13
  %12 = load ptr, ptr %5, align 8, !tbaa !272
  %13 = load ptr, ptr %12, align 8, !tbaa !312
  store ptr %13, ptr %7, align 8, !tbaa !312
  call void @llvm.lifetime.start.p0(i64 4, ptr %8) #13
  %14 = load ptr, ptr %6, align 8, !tbaa !312
  %15 = getelementptr inbounds nuw %struct.AVChapter, ptr %14, i32 0, i32 2
  %16 = load i64, ptr %15, align 8, !tbaa !316
  %17 = load ptr, ptr %6, align 8, !tbaa !312
  %18 = getelementptr inbounds nuw %struct.AVChapter, ptr %17, i32 0, i32 1
  %19 = load ptr, ptr %7, align 8, !tbaa !312
  %20 = getelementptr inbounds nuw %struct.AVChapter, ptr %19, i32 0, i32 2
  %21 = load i64, ptr %20, align 8, !tbaa !316
  %22 = load ptr, ptr %7, align 8, !tbaa !312
  %23 = getelementptr inbounds nuw %struct.AVChapter, ptr %22, i32 0, i32 1
  %24 = load i64, ptr %18, align 8
  %25 = load i64, ptr %23, align 8
  %26 = call i32 @av_compare_ts(i64 noundef %16, i64 %24, i64 noundef %21, i64 %25)
  store i32 %26, ptr %8, align 4, !tbaa !50
  %27 = load i32, ptr %8, align 4, !tbaa !50
  %28 = icmp ne i32 %27, 0
  br i1 %28, label %29, label %31

29:                                               ; preds = %2
  %30 = load i32, ptr %8, align 4, !tbaa !50
  store i32 %30, ptr %3, align 4
  store i32 1, ptr %9, align 4
  br label %49

31:                                               ; preds = %2
  %32 = load ptr, ptr %6, align 8, !tbaa !312
  %33 = getelementptr inbounds nuw %struct.AVChapter, ptr %32, i32 0, i32 0
  %34 = load i64, ptr %33, align 8, !tbaa !396
  %35 = load ptr, ptr %7, align 8, !tbaa !312
  %36 = getelementptr inbounds nuw %struct.AVChapter, ptr %35, i32 0, i32 0
  %37 = load i64, ptr %36, align 8, !tbaa !396
  %38 = icmp sgt i64 %34, %37
  %39 = zext i1 %38 to i32
  %40 = load ptr, ptr %6, align 8, !tbaa !312
  %41 = getelementptr inbounds nuw %struct.AVChapter, ptr %40, i32 0, i32 0
  %42 = load i64, ptr %41, align 8, !tbaa !396
  %43 = load ptr, ptr %7, align 8, !tbaa !312
  %44 = getelementptr inbounds nuw %struct.AVChapter, ptr %43, i32 0, i32 0
  %45 = load i64, ptr %44, align 8, !tbaa !396
  %46 = icmp slt i64 %42, %45
  %47 = zext i1 %46 to i32
  %48 = sub nsw i32 %39, %47
  store i32 %48, ptr %3, align 4
  store i32 1, ptr %9, align 4
  br label %49

49:                                               ; preds = %31, %29
  call void @llvm.lifetime.end.p0(i64 4, ptr %8) #13
  call void @llvm.lifetime.end.p0(i64 8, ptr %7) #13
  call void @llvm.lifetime.end.p0(i64 8, ptr %6) #13
  %50 = load i32, ptr %3, align 4
  ret i32 %50
}