; Function Attrs: nounwind uwtable
define internal i32 @chapter_start_cmp(ptr noundef readonly captures(none) %0, ptr noundef readonly captures(none) %1) #1 {
  %3 = load ptr, ptr %0, align 8, !tbaa !278
  %4 = load ptr, ptr %1, align 8, !tbaa !278
  %5 = getelementptr inbounds nuw i8, ptr %3, i64 16
  %6 = load i64, ptr %5, align 8, !tbaa !282
  %7 = getelementptr inbounds nuw i8, ptr %3, i64 8
  %8 = getelementptr inbounds nuw i8, ptr %4, i64 16
  %9 = load i64, ptr %8, align 8, !tbaa !282
  %10 = getelementptr inbounds nuw i8, ptr %4, i64 8
  %11 = load i64, ptr %7, align 8
  %12 = load i64, ptr %10, align 8
  %13 = tail call i32 @av_compare_ts(i64 noundef %6, i64 %11, i64 noundef %9, i64 %12) #15
  %.not = icmp eq i32 %13, 0
  br i1 %.not, label %14, label %18

14:                                               ; preds = %2
  %15 = load i64, ptr %3, align 8, !tbaa !358
  %16 = load i64, ptr %4, align 8, !tbaa !358
  %17 = tail call i32 @llvm.scmp.i32.i64(i64 %15, i64 %16)
  br label %18

18:                                               ; preds = %2, %14
  %.0 = phi i32 [ %17, %14 ], [ %13, %2 ]
  ret i32 %.0
}